target datalayout = "e-m:e-p270:32:32-p271:32:32-p272:64:64-i64:64-i128:128-f80:128-n8:16:32:64-S128"
target triple = "x86_64-pc-linux-gnu"

%class.Klass = type <{ %class.Metadata, i32, i32, i32, i32, ptr, ptr, ptr, [8 x ptr], %class.OopHandle, ptr, ptr, ptr, ptr, ptr, i32, %class.AccessFlags, i64, i64, i8, i8, i16, i16, [2 x i8], i32, [4 x i8] }>
%class.Metadata = type { ptr }
%class.OopHandle = type { ptr }
%class.AccessFlags = type { i32 }
%class.Method = type { %class.Metadata, ptr, ptr, ptr, ptr, %class.AccessFlags, i32, %class.MethodFlags, i16, %class.JfrTraceFlag, ptr, ptr, ptr, ptr }
%class.MethodFlags = type { i32 }
%class.JfrTraceFlag = type { i16 }
%class.ConstantPool = type <{ %class.Metadata, ptr, ptr, ptr, ptr, ptr, i16, i16, i16, i16, i16, [2 x i8], i32, %union.anon.4, [4 x i8] }>
%union.anon.4 = type { i32 }
%class.ConstMethod = type <{ i64, ptr, ptr, i32, %class.ConstMethodFlags, i8, i8, i16, i16, i16, i16, i16, i16, i16, i16, i16, [4 x i8] }>
%class.ConstMethodFlags = type { i32 }

; Function Attrs: mustprogress nounwind uwtable
define linkonce_odr hidden noundef zeroext i1 @_ZNK16ConstMethodFlags11is_overpassEv(ptr noundef nonnull align 4 dereferenceable(4) %0) #1 comdat align 2 {
  %2 = alloca ptr, align 8
  store ptr %0, ptr %2, align 8
  %3 = load ptr, ptr %2, align 8
  %4 = getelementptr inbounds %class.ConstMethodFlags, ptr %3, i32 0, i32 0
  %5 = load i32, ptr %4, align 4
  %6 = and i32 %5, 64
  %7 = icmp ne i32 %6, 0
  ret i1 %7
}

; Function Attrs: mustprogress nounwind uwtable
define linkonce_odr hidden noundef zeroext i1 @_ZNK11AccessFlags10is_privateEv(ptr noundef nonnull align 4 dereferenceable(4) %0) #1 comdat align 2 {
  %2 = alloca ptr, align 8
  store ptr %0, ptr %2, align 8
  %3 = load ptr, ptr %2, align 8
  %4 = getelementptr inbounds %class.AccessFlags, ptr %3, i32 0, i32 0
  %5 = load i32, ptr %4, align 4
  %6 = and i32 %5, 2
  %7 = icmp ne i32 %6, 0
  ret i1 %7
}

; Function Attrs: mustprogress nounwind uwtable
define linkonce_odr hidden noundef zeroext i1 @_ZNK11AccessFlags11is_abstractEv(ptr noundef nonnull align 4 dereferenceable(4) %0) #1 comdat align 2 {
  %2 = alloca ptr, align 8
  store ptr %0, ptr %2, align 8
  %3 = load ptr, ptr %2, align 8
  %4 = getelementptr inbounds %class.AccessFlags, ptr %3, i32 0, i32 0
  %5 = load i32, ptr %4, align 4
  %6 = and i32 %5, 1024
  %7 = icmp ne i32 %6, 0
  ret i1 %7
}

; Function Attrs: mustprogress nounwind uwtable
define linkonce_odr hidden noundef zeroext i1 @_ZNK11AccessFlags12is_interfaceEv(ptr noundef nonnull align 4 dereferenceable(4) %0) #1 comdat align 2 {
  %2 = alloca ptr, align 8
  store ptr %0, ptr %2, align 8
  %3 = load ptr, ptr %2, align 8
  %4 = getelementptr inbounds %class.AccessFlags, ptr %3, i32 0, i32 0
  %5 = load i32, ptr %4, align 4
  %6 = and i32 %5, 512
  %7 = icmp ne i32 %6, 0
  ret i1 %7
}

; Function Attrs: mustprogress nounwind uwtable
define linkonce_odr hidden noundef i32 @_ZNK11ConstMethod11method_typeEv(ptr noundef nonnull align 8 dereferenceable(52) %0) #1 comdat align 2 {
  %2 = alloca ptr, align 8
  store ptr %0, ptr %2, align 8
  %3 = load ptr, ptr %2, align 8
  %4 = getelementptr inbounds %class.ConstMethod, ptr %3, i32 0, i32 4
  %5 = call noundef zeroext i1 @_ZNK16ConstMethodFlags11is_overpassEv(ptr noundef nonnull align 4 dereferenceable(4) %4)
  %6 = select i1 %5, i32 1, i32 0
  ret i32 %6
}

; Function Attrs: mustprogress nounwind uwtable
define linkonce_odr hidden i32 @_ZNK6Method12access_flagsEv(ptr noundef nonnull align 8 dereferenceable(88) %0) #1 comdat align 2 {
  %2 = alloca %class.AccessFlags, align 4
  %3 = alloca ptr, align 8
  store ptr %0, ptr %3, align 8
  %4 = load ptr, ptr %3, align 8
  %5 = getelementptr inbounds %class.Method, ptr %4, i32 0, i32 5
  call void @llvm.memcpy.p0.p0.i64(ptr align 4 %2, ptr align 8 %5, i64 4, i1 false)
  %6 = getelementptr inbounds %class.AccessFlags, ptr %2, i32 0, i32 0
  %7 = load i32, ptr %6, align 4
  ret i32 %7
}

; Function Attrs: mustprogress nounwind uwtable
define linkonce_odr hidden noundef zeroext i1 @_ZNK6Method10is_privateEv(ptr noundef nonnull align 8 dereferenceable(88) %0) #1 comdat align 2 {
  %2 = alloca ptr, align 8
  %3 = alloca %class.AccessFlags, align 4
  store ptr %0, ptr %2, align 8
  %4 = load ptr, ptr %2, align 8
  %5 = call i32 @_ZNK6Method12access_flagsEv(ptr noundef nonnull align 8 dereferenceable(88) %4)
  %6 = getelementptr inbounds %class.AccessFlags, ptr %3, i32 0, i32 0
  store i32 %5, ptr %6, align 4
  %7 = call noundef zeroext i1 @_ZNK11AccessFlags10is_privateEv(ptr noundef nonnull align 4 dereferenceable(4) %3)
  ret i1 %7
}

; Function Attrs: mustprogress nounwind uwtable
define linkonce_odr hidden noundef zeroext i1 @_ZNK6Method11is_abstractEv(ptr noundef nonnull align 8 dereferenceable(88) %0) #1 comdat align 2 {
  %2 = alloca ptr, align 8
  %3 = alloca %class.AccessFlags, align 4
  store ptr %0, ptr %2, align 8
  %4 = load ptr, ptr %2, align 8
  %5 = call i32 @_ZNK6Method12access_flagsEv(ptr noundef nonnull align 8 dereferenceable(88) %4)
  %6 = getelementptr inbounds %class.AccessFlags, ptr %3, i32 0, i32 0
  store i32 %5, ptr %6, align 4
  %7 = call noundef zeroext i1 @_ZNK11AccessFlags11is_abstractEv(ptr noundef nonnull align 4 dereferenceable(4) %3)
  ret i1 %7
}

; Function Attrs: mustprogress nounwind uwtable
define linkonce_odr hidden noundef zeroext i1 @_ZNK5Klass12is_interfaceEv(ptr noundef nonnull align 8 dereferenceable(196) %0) #1 comdat align 2 {
  %2 = alloca ptr, align 8
  store ptr %0, ptr %2, align 8
  %3 = load ptr, ptr %2, align 8
  %4 = getelementptr inbounds %class.Klass, ptr %3, i32 0, i32 16
  %5 = call noundef zeroext i1 @_ZNK11AccessFlags12is_interfaceEv(ptr noundef nonnull align 4 dereferenceable(4) %4)
  ret i1 %5
}

; Function Attrs: mustprogress nounwind uwtable
define linkonce_odr hidden noundef i32 @_ZNK6Method11method_typeEv(ptr noundef nonnull align 8 dereferenceable(88) %0) #1 comdat align 2 {
  %2 = alloca ptr, align 8
  store ptr %0, ptr %2, align 8
  %3 = load ptr, ptr %2, align 8
  %4 = getelementptr inbounds %class.Method, ptr %3, i32 0, i32 1
  %5 = load ptr, ptr %4, align 8
  %6 = call noundef i32 @_ZNK11ConstMethod11method_typeEv(ptr noundef nonnull align 8 dereferenceable(52) %5)
  ret i32 %6
}

; Function Attrs: mustprogress nounwind uwtable
define linkonce_odr hidden noundef zeroext i1 @_ZNK11AccessFlags8is_finalEv(ptr noundef nonnull align 4 dereferenceable(4) %0) #1 comdat align 2 {
  %2 = alloca ptr, align 8
  store ptr %0, ptr %2, align 8
  %3 = load ptr, ptr %2, align 8
  %4 = getelementptr inbounds %class.AccessFlags, ptr %3, i32 0, i32 0
  %5 = load i32, ptr %4, align 4
  %6 = and i32 %5, 16
  %7 = icmp ne i32 %6, 0
  ret i1 %7
}

; Function Attrs: mustprogress nounwind uwtable
define linkonce_odr hidden noundef zeroext i1 @_ZNK6Method8is_finalEv(ptr noundef nonnull align 8 dereferenceable(88) %0) #1 comdat align 2 {
  %2 = alloca ptr, align 8
  %3 = alloca %class.AccessFlags, align 4
  store ptr %0, ptr %2, align 8
  %4 = load ptr, ptr %2, align 8
  %5 = call i32 @_ZNK6Method12access_flagsEv(ptr noundef nonnull align 8 dereferenceable(88) %4)
  %6 = getelementptr inbounds %class.AccessFlags, ptr %3, i32 0, i32 0
  store i32 %5, ptr %6, align 4
  %7 = call noundef zeroext i1 @_ZNK11AccessFlags8is_finalEv(ptr noundef nonnull align 4 dereferenceable(4) %3)
  ret i1 %7
}

; Function Attrs: mustprogress nounwind uwtable
define hidden noundef zeroext i1 @_ZNK6Method17is_default_methodEv(ptr noundef nonnull align 8 dereferenceable(88) %0) #1 align 2 {
  %2 = alloca i1, align 1
  %3 = alloca ptr, align 8
  store ptr %0, ptr %3, align 8
  %4 = load ptr, ptr %3, align 8
  %5 = call noundef ptr @_ZNK6Method13method_holderEv(ptr noundef nonnull align 8 dereferenceable(88) %4)
  %6 = icmp ne ptr %5, null
  br i1 %6, label %7, label %15

7:                                                ; preds = %1
  %8 = call noundef ptr @_ZNK6Method13method_holderEv(ptr noundef nonnull align 8 dereferenceable(88) %4)
  %9 = call noundef zeroext i1 @_ZNK5Klass12is_interfaceEv(ptr noundef nonnull align 8 dereferenceable(196) %8)
  br i1 %9, label %10, label %15

10:                                               ; preds = %7
  %11 = call noundef zeroext i1 @_ZNK6Method11is_abstractEv(ptr noundef nonnull align 8 dereferenceable(88) %4)
  br i1 %11, label %15, label %12

12:                                               ; preds = %10
  %13 = call noundef zeroext i1 @_ZNK6Method10is_privateEv(ptr noundef nonnull align 8 dereferenceable(88) %4)
  br i1 %13, label %15, label %14

14:                                               ; preds = %12
  store i1 true, ptr %2, align 1
  br label %16

15:                                               ; preds = %12, %10, %7, %1
  store i1 false, ptr %2, align 1
  br label %16

16:                                               ; preds = %15, %14
  %17 = load i1, ptr %2, align 1
  ret i1 %17
}

; Function Attrs: mustprogress nounwind uwtable
define linkonce_odr hidden noundef zeroext i1 @_ZNK6Method11is_overpassEv(ptr noundef nonnull align 8 dereferenceable(88) %0) #1 comdat align 2 {
  %2 = alloca ptr, align 8
  store ptr %0, ptr %2, align 8
  %3 = load ptr, ptr %2, align 8
  %4 = call noundef i32 @_ZNK6Method11method_typeEv(ptr noundef nonnull align 8 dereferenceable(88) %3)
  %5 = icmp eq i32 %4, 1
  ret i1 %5
}

; Function Attrs: mustprogress nounwind uwtable
define linkonce_odr hidden noundef ptr @_ZNK11ConstMethod9constantsEv(ptr noundef nonnull align 8 dereferenceable(52) %0) #1 comdat align 2 {
  %2 = alloca ptr, align 8
  store ptr %0, ptr %2, align 8
  %3 = load ptr, ptr %2, align 8
  %4 = getelementptr inbounds %class.ConstMethod, ptr %3, i32 0, i32 1
  %5 = load ptr, ptr %4, align 8
  ret ptr %5
}

; Function Attrs: mustprogress nounwind uwtable
define linkonce_odr hidden noundef ptr @_ZNK6Method11constMethodEv(ptr noundef nonnull align 8 dereferenceable(88) %0) #1 comdat align 2 {
  %2 = alloca ptr, align 8
  store ptr %0, ptr %2, align 8
  %3 = load ptr, ptr %2, align 8
  %4 = getelementptr inbounds %class.Method, ptr %3, i32 0, i32 1
  %5 = load ptr, ptr %4, align 8
  ret ptr %5
}

; Function Attrs: mustprogress nounwind uwtable
define linkonce_odr hidden noundef i32 @_ZNK6Method12vtable_indexEv(ptr noundef nonnull align 8 dereferenceable(88) %0) #1 comdat align 2 {
  %2 = alloca ptr, align 8
  store ptr %0, ptr %2, align 8
  %3 = load ptr, ptr %2, align 8
  %4 = getelementptr inbounds %class.Method, ptr %3, i32 0, i32 6
  %5 = load i32, ptr %4, align 4
  ret i32 %5
}

; Function Attrs: mustprogress nounwind uwtable
define hidden noundef zeroext i1 @_ZNK6Method15is_final_methodE11AccessFlags(ptr noundef nonnull align 8 dereferenceable(88) %0, i32 %1) #1 align 2 {
  %3 = alloca i1, align 1
  %4 = alloca %class.AccessFlags, align 4
  %5 = alloca ptr, align 8
  %6 = getelementptr inbounds %class.AccessFlags, ptr %4, i32 0, i32 0
  store i32 %1, ptr %6, align 4
  store ptr %0, ptr %5, align 8
  %7 = load ptr, ptr %5, align 8
  %8 = call noundef zeroext i1 @_ZNK6Method11is_overpassEv(ptr noundef nonnull align 8 dereferenceable(88) %7)
  br i1 %8, label %11, label %9

9:                                                ; preds = %2
  %10 = call noundef zeroext i1 @_ZNK6Method17is_default_methodEv(ptr noundef nonnull align 8 dereferenceable(88) %7)
  br i1 %10, label %11, label %12

11:                                               ; preds = %9, %2
  store i1 false, ptr %3, align 1
  br label %18

12:                                               ; preds = %9
  %13 = call noundef zeroext i1 @_ZNK6Method8is_finalEv(ptr noundef nonnull align 8 dereferenceable(88) %7)
  br i1 %13, label %16, label %14

14:                                               ; preds = %12
  %15 = call noundef zeroext i1 @_ZNK11AccessFlags8is_finalEv(ptr noundef nonnull align 4 dereferenceable(4) %4)
  br label %16

16:                                               ; preds = %14, %12
  %17 = phi i1 [ true, %12 ], [ %15, %14 ]
  store i1 %17, ptr %3, align 1
  br label %18

18:                                               ; preds = %16, %11
  %19 = load i1, ptr %3, align 1
  ret i1 %19
}

; Function Attrs: mustprogress nounwind uwtable
define linkonce_odr hidden noundef ptr @_ZNK12ConstantPool11pool_holderEv(ptr noundef nonnull align 8 dereferenceable(68) %0) #1 comdat align 2 {
  %2 = alloca ptr, align 8
  store ptr %0, ptr %2, align 8
  %3 = load ptr, ptr %2, align 8
  %4 = getelementptr inbounds %class.ConstantPool, ptr %3, i32 0, i32 3
  %5 = load ptr, ptr %4, align 8
  ret ptr %5
}

; Function Attrs: mustprogress nounwind uwtable
define linkonce_odr hidden noundef ptr @_ZNK6Method9constantsEv(ptr noundef nonnull align 8 dereferenceable(88) %0) #1 comdat align 2 {
  %2 = alloca ptr, align 8
  store ptr %0, ptr %2, align 8
  %3 = load ptr, ptr %2, align 8
  %4 = call noundef ptr @_ZNK6Method11constMethodEv(ptr noundef nonnull align 8 dereferenceable(88) %3)
  %5 = call noundef ptr @_ZNK11ConstMethod9constantsEv(ptr noundef nonnull align 8 dereferenceable(52) %4)
  ret ptr %5
}

; Function Attrs: mustprogress nounwind uwtable
define hidden noundef zeroext i1 @_ZNK6Method23can_be_statically_boundE11AccessFlags(ptr noundef nonnull align 8 dereferenceable(88) %0, i32 %1) #1 align 2 {
  %3 = alloca i1, align 1
  %4 = alloca %class.AccessFlags, align 4
  %5 = alloca ptr, align 8
  %6 = alloca %class.AccessFlags, align 4
  %7 = getelementptr inbounds %class.AccessFlags, ptr %4, i32 0, i32 0
  store i32 %1, ptr %7, align 4
  store ptr %0, ptr %5, align 8
  %8 = load ptr, ptr %5, align 8
  call void @llvm.memcpy.p0.p0.i64(ptr align 4 %6, ptr align 4 %4, i64 4, i1 false)
  %9 = getelementptr inbounds %class.AccessFlags, ptr %6, i32 0, i32 0
  %10 = load i32, ptr %9, align 4
  %11 = call noundef zeroext i1 @_ZNK6Method15is_final_methodE11AccessFlags(ptr noundef nonnull align 8 dereferenceable(88) %8, i32 %10)
  br i1 %11, label %12, label %13

12:                                               ; preds = %2
  store i1 true, ptr %3, align 1
  br label %16

13:                                               ; preds = %2
  %14 = call noundef i32 @_ZNK6Method12vtable_indexEv(ptr noundef nonnull align 8 dereferenceable(88) %8)
  %15 = icmp eq i32 %14, -2
  store i1 %15, ptr %3, align 1
  br label %16

16:                                               ; preds = %13, %12
  %17 = load i1, ptr %3, align 1
  ret i1 %17
}

; Function Attrs: mustprogress nounwind uwtable
define linkonce_odr hidden i32 @_ZNK5Klass12access_flagsEv(ptr noundef nonnull align 8 dereferenceable(196) %0) #1 comdat align 2 {
  %2 = alloca %class.AccessFlags, align 4
  %3 = alloca ptr, align 8
  store ptr %0, ptr %3, align 8
  %4 = load ptr, ptr %3, align 8
  %5 = getelementptr inbounds %class.Klass, ptr %4, i32 0, i32 16
  call void @llvm.memcpy.p0.p0.i64(ptr align 4 %2, ptr align 4 %5, i64 4, i1 false)
  %6 = getelementptr inbounds %class.AccessFlags, ptr %2, i32 0, i32 0
  %7 = load i32, ptr %6, align 4
  ret i32 %7
}

; Function Attrs: mustprogress nounwind uwtable
define linkonce_odr hidden noundef ptr @_ZNK6Method13method_holderEv(ptr noundef nonnull align 8 dereferenceable(88) %0) #1 comdat align 2 {
  %2 = alloca ptr, align 8
  store ptr %0, ptr %2, align 8
  %3 = load ptr, ptr %2, align 8
  %4 = call noundef ptr @_ZNK6Method9constantsEv(ptr noundef nonnull align 8 dereferenceable(88) %3)
  %5 = call noundef ptr @_ZNK12ConstantPool11pool_holderEv(ptr noundef nonnull align 8 dereferenceable(68) %4)
  ret ptr %5
}

; Function Attrs: mustprogress nounwind uwtable
define hidden noundef zeroext i1 @_ZNK6Method23can_be_statically_boundEv(ptr noundef nonnull align 8 dereferenceable(88) %0) #1 align 2 {
  %2 = alloca ptr, align 8
  %3 = alloca %class.AccessFlags, align 4
  store ptr %0, ptr %2, align 8
  %4 = load ptr, ptr %2, align 8
  %5 = call noundef ptr @_ZNK6Method13method_holderEv(ptr noundef nonnull align 8 dereferenceable(88) %4)
  %6 = call i32 @_ZNK5Klass12access_flagsEv(ptr noundef nonnull align 8 dereferenceable(196) %5)
  %7 = getelementptr inbounds %class.AccessFlags, ptr %3, i32 0, i32 0
  store i32 %6, ptr %7, align 4
  %8 = getelementptr inbounds %class.AccessFlags, ptr %3, i32 0, i32 0
  %9 = load i32, ptr %8, align 4
  %10 = call noundef zeroext i1 @_ZNK6Method23can_be_statically_boundE11AccessFlags(ptr noundef nonnull align 8 dereferenceable(88) %4, i32 %9)
  ret i1 %10
}