; Function Attrs: mustprogress nofree norecurse nosync nounwind willreturn memory(read, inaccessiblemem: none) uwtable
define hidden noundef zeroext i1 @_ZNK6Method23can_be_statically_boundEv(ptr nocapture noundef nonnull readonly align 8 dereferenceable(88) %0) local_unnamed_addr #7 align 2 {
  %2 = getelementptr inbounds i8, ptr %0, i64 8
  %3 = load ptr, ptr %2, align 8
  %4 = getelementptr inbounds i8, ptr %3, i64 8
  %5 = load ptr, ptr %4, align 8
  %6 = getelementptr inbounds i8, ptr %5, i64 24
  %7 = load ptr, ptr %6, align 8
  %8 = getelementptr inbounds i8, ptr %7, i64 164
  %.sroa.0.0.copyload.i = load i32, ptr %8, align 4
  %9 = getelementptr inbounds i8, ptr %3, i64 28
  %10 = load i32, ptr %9, align 4
  %11 = and i32 %10, 64
  %.not.i.i = icmp eq i32 %11, 0
  br i1 %.not.i.i, label %12, label %_ZNK6Method15is_final_methodE11AccessFlags.exit.thread.i

12:                                               ; preds = %1
  %13 = and i32 %.sroa.0.0.copyload.i, 512
  %.not4.i.i.i = icmp ne i32 %13, 0
  %.phi.trans.insert = getelementptr inbounds i8, ptr %0, i64 40
  %.sroa.0.0.copyload.i.i.i.i.pre = load i32, ptr %.phi.trans.insert, align 8
  %14 = and i32 %.sroa.0.0.copyload.i.i.i.i.pre, 1026
  %or.cond.not.i.i.i = icmp eq i32 %14, 0
  %or.cond = select i1 %.not4.i.i.i, i1 %or.cond.not.i.i.i, i1 false
  br i1 %or.cond, label %_ZNK6Method15is_final_methodE11AccessFlags.exit.thread.i, label %_ZNK6Method17is_default_methodEv.exit.i.i

_ZNK6Method17is_default_methodEv.exit.i.i:        ; preds = %12
  %15 = and i32 %.sroa.0.0.copyload.i.i.i.i.pre, 16
  %.not3.i.i = icmp ne i32 %15, 0
  %16 = and i32 %.sroa.0.0.copyload.i, 16
  %17 = icmp ne i32 %16, 0
  %or.cond.i = select i1 %.not3.i.i, i1 true, i1 %17
  br i1 %or.cond.i, label %_ZNK6Method23can_be_statically_boundE11AccessFlags.exit, label %_ZNK6Method15is_final_methodE11AccessFlags.exit.thread.i

_ZNK6Method15is_final_methodE11AccessFlags.exit.thread.i: ; preds = %12, %_ZNK6Method17is_default_methodEv.exit.i.i, %1
  %18 = getelementptr inbounds i8, ptr %0, i64 44
  %19 = load i32, ptr %18, align 4
  %20 = icmp eq i32 %19, -2
  br label %_ZNK6Method23can_be_statically_boundE11AccessFlags.exit

_ZNK6Method23can_be_statically_boundE11AccessFlags.exit: ; preds = %_ZNK6Method17is_default_methodEv.exit.i.i, %_ZNK6Method15is_final_methodE11AccessFlags.exit.thread.i
  %.0.i = phi i1 [ %20, %_ZNK6Method15is_final_methodE11AccessFlags.exit.thread.i ], [ true, %_ZNK6Method17is_default_methodEv.exit.i.i ]
  ret i1 %.0.i
}